; Function Attrs: mustprogress nofree norecurse nosync nounwind willreturn memory(read, inaccessiblemem: none) uwtable
define noundef ptr @_ZNK13sentencepiece4util6Status13error_messageEv(ptr noundef nonnull readonly align 8 captures(none) dereferenceable(8) %0) local_unnamed_addr #14 align 2 {
  %2 = load ptr, ptr %0, align 8, !tbaa !11
  %.not.i.i = icmp eq ptr %2, null
  br i1 %.not.i.i, label %6, label %3

3:                                                ; preds = %1
  %4 = getelementptr inbounds nuw i8, ptr %2, i64 8
  %5 = load ptr, ptr %4, align 8, !tbaa !12
  br label %6

6:                                                ; preds = %1, %3
  %7 = phi ptr [ %5, %3 ], [ @.str.1, %1 ]
  ret ptr %7
}